target datalayout = "e-m:e-p270:32:32-p271:32:32-p272:64:64-i64:64-i128:128-f80:128-n8:16:32:64-S128"
target triple = "x86_64-pc-linux-gnu"

%"struct.faiss::Clustering" = type { ptr, %"struct.faiss::ClusteringParameters", i64, i64, %"class.std::vector", %"class.std::vector.0" }
%"struct.faiss::ClusteringParameters" = type { i32, i32, i8, i8, i8, i8, i8, i32, i32, i32, i64 }
%"class.std::vector" = type { %"struct.std::_Vector_base" }
%"struct.std::_Vector_base" = type { %"struct.std::_Vector_base<float, std::allocator<float>>::_Vector_impl" }
%"struct.std::_Vector_base<float, std::allocator<float>>::_Vector_impl" = type { %"struct.std::_Vector_base<float, std::allocator<float>>::_Vector_impl_data" }
%"struct.std::_Vector_base<float, std::allocator<float>>::_Vector_impl_data" = type { ptr, ptr, ptr }
%"class.std::vector.0" = type { %"struct.std::_Vector_base.1" }
%"struct.std::_Vector_base.1" = type { %"struct.std::_Vector_base<faiss::ClusteringIterationStats, std::allocator<faiss::ClusteringIterationStats>>::_Vector_impl" }
%"struct.std::_Vector_base<faiss::ClusteringIterationStats, std::allocator<faiss::ClusteringIterationStats>>::_Vector_impl" = type { %"struct.std::_Vector_base<faiss::ClusteringIterationStats, std::allocator<faiss::ClusteringIterationStats>>::_Vector_impl_data" }
%"struct.std::_Vector_base<faiss::ClusteringIterationStats, std::allocator<faiss::ClusteringIterationStats>>::_Vector_impl_data" = type { ptr, ptr, ptr }

@_ZTVN5faiss10ClusteringE = unnamed_addr constant { [5 x ptr] } { [5 x ptr] [ptr null, ptr @_ZTIN5faiss10ClusteringE, ptr @_ZN5faiss10Clustering5trainElPKfRNS_5IndexES2_, ptr @_ZN5faiss10ClusteringD2Ev, ptr @_ZN5faiss10ClusteringD0Ev] }, align 8
@_ZTVN5faiss12Clustering1DE = linkonce_odr unnamed_addr constant { [5 x ptr] } { [5 x ptr] [ptr null, ptr @_ZTIN5faiss12Clustering1DE, ptr @_ZN5faiss10Clustering5trainElPKfRNS_5IndexES2_, ptr @_ZN5faiss12Clustering1DD2Ev, ptr @_ZN5faiss12Clustering1DD0Ev] }, comdat, align 8

; Function Attrs: mustprogress nounwind uwtable
define linkonce_odr void @_ZNSt15__new_allocatorIN5faiss24ClusteringIterationStatsEEC2Ev(ptr noundef nonnull align 1 dereferenceable(1) %0) unnamed_addr #1 comdat align 2 {
  %2 = alloca ptr, align 8
  store ptr %0, ptr %2, align 8
  ret void
}

; Function Attrs: mustprogress nounwind uwtable
define linkonce_odr void @_ZNSt15__new_allocatorIfEC2Ev(ptr noundef nonnull align 1 dereferenceable(1) %0) unnamed_addr #1 comdat align 2 {
  %2 = alloca ptr, align 8
  store ptr %0, ptr %2, align 8
  ret void
}

; Function Attrs: mustprogress nounwind uwtable
define linkonce_odr void @_ZNSt12_Vector_baseIN5faiss24ClusteringIterationStatsESaIS1_EE17_Vector_impl_dataC2Ev(ptr noundef nonnull align 8 dereferenceable(24) %0) unnamed_addr #1 comdat align 2 {
  %2 = alloca ptr, align 8
  store ptr %0, ptr %2, align 8
  %3 = load ptr, ptr %2, align 8
  %4 = getelementptr inbounds %"struct.std::_Vector_base<faiss::ClusteringIterationStats, std::allocator<faiss::ClusteringIterationStats>>::_Vector_impl_data", ptr %3, i32 0, i32 0
  store ptr null, ptr %4, align 8
  %5 = getelementptr inbounds %"struct.std::_Vector_base<faiss::ClusteringIterationStats, std::allocator<faiss::ClusteringIterationStats>>::_Vector_impl_data", ptr %3, i32 0, i32 1
  store ptr null, ptr %5, align 8
  %6 = getelementptr inbounds %"struct.std::_Vector_base<faiss::ClusteringIterationStats, std::allocator<faiss::ClusteringIterationStats>>::_Vector_impl_data", ptr %3, i32 0, i32 2
  store ptr null, ptr %6, align 8
  ret void
}

; Function Attrs: mustprogress nounwind uwtable
define linkonce_odr void @_ZNSaIN5faiss24ClusteringIterationStatsEEC2Ev(ptr noundef nonnull align 1 dereferenceable(1) %0) unnamed_addr #1 comdat align 2 {
  %2 = alloca ptr, align 8
  store ptr %0, ptr %2, align 8
  %3 = load ptr, ptr %2, align 8
  call void @_ZNSt15__new_allocatorIN5faiss24ClusteringIterationStatsEEC2Ev(ptr noundef nonnull align 1 dereferenceable(1) %3) #12
  ret void
}

; Function Attrs: mustprogress nounwind uwtable
define linkonce_odr void @_ZNSt12_Vector_baseIfSaIfEE17_Vector_impl_dataC2Ev(ptr noundef nonnull align 8 dereferenceable(24) %0) unnamed_addr #1 comdat align 2 {
  %2 = alloca ptr, align 8
  store ptr %0, ptr %2, align 8
  %3 = load ptr, ptr %2, align 8
  %4 = getelementptr inbounds %"struct.std::_Vector_base<float, std::allocator<float>>::_Vector_impl_data", ptr %3, i32 0, i32 0
  store ptr null, ptr %4, align 8
  %5 = getelementptr inbounds %"struct.std::_Vector_base<float, std::allocator<float>>::_Vector_impl_data", ptr %3, i32 0, i32 1
  store ptr null, ptr %5, align 8
  %6 = getelementptr inbounds %"struct.std::_Vector_base<float, std::allocator<float>>::_Vector_impl_data", ptr %3, i32 0, i32 2
  store ptr null, ptr %6, align 8
  ret void
}

; Function Attrs: mustprogress nounwind uwtable
define linkonce_odr void @_ZNSaIfEC2Ev(ptr noundef nonnull align 1 dereferenceable(1) %0) unnamed_addr #1 comdat align 2 {
  %2 = alloca ptr, align 8
  store ptr %0, ptr %2, align 8
  %3 = load ptr, ptr %2, align 8
  call void @_ZNSt15__new_allocatorIfEC2Ev(ptr noundef nonnull align 1 dereferenceable(1) %3) #12
  ret void
}

; Function Attrs: mustprogress nounwind uwtable
define linkonce_odr void @_ZNSt12_Vector_baseIN5faiss24ClusteringIterationStatsESaIS1_EE12_Vector_implC2Ev(ptr noundef nonnull align 8 dereferenceable(24) %0) unnamed_addr #1 comdat align 2 {
  %2 = alloca ptr, align 8
  store ptr %0, ptr %2, align 8
  %3 = load ptr, ptr %2, align 8
  call void @_ZNSaIN5faiss24ClusteringIterationStatsEEC2Ev(ptr noundef nonnull align 1 dereferenceable(1) %3) #12
  call void @_ZNSt12_Vector_baseIN5faiss24ClusteringIterationStatsESaIS1_EE17_Vector_impl_dataC2Ev(ptr noundef nonnull align 8 dereferenceable(24) %3) #12
  ret void
}

; Function Attrs: mustprogress nounwind uwtable
define linkonce_odr void @_ZNSt12_Vector_baseIfSaIfEE12_Vector_implC2Ev(ptr noundef nonnull align 8 dereferenceable(24) %0) unnamed_addr #1 comdat align 2 {
  %2 = alloca ptr, align 8
  store ptr %0, ptr %2, align 8
  %3 = load ptr, ptr %2, align 8
  call void @_ZNSaIfEC2Ev(ptr noundef nonnull align 1 dereferenceable(1) %3) #12
  call void @_ZNSt12_Vector_baseIfSaIfEE17_Vector_impl_dataC2Ev(ptr noundef nonnull align 8 dereferenceable(24) %3) #12
  ret void
}

; Function Attrs: mustprogress nounwind uwtable
define linkonce_odr void @_ZNSt12_Vector_baseIN5faiss24ClusteringIterationStatsESaIS1_EEC2Ev(ptr noundef nonnull align 8 dereferenceable(24) %0) unnamed_addr #1 comdat align 2 {
  %2 = alloca ptr, align 8
  store ptr %0, ptr %2, align 8
  %3 = load ptr, ptr %2, align 8
  %4 = getelementptr inbounds %"struct.std::_Vector_base.1", ptr %3, i32 0, i32 0
  call void @_ZNSt12_Vector_baseIN5faiss24ClusteringIterationStatsESaIS1_EE12_Vector_implC2Ev(ptr noundef nonnull align 8 dereferenceable(24) %4) #12
  ret void
}

; Function Attrs: mustprogress nounwind uwtable
define linkonce_odr void @_ZNSt12_Vector_baseIfSaIfEEC2Ev(ptr noundef nonnull align 8 dereferenceable(24) %0) unnamed_addr #1 comdat align 2 {
  %2 = alloca ptr, align 8
  store ptr %0, ptr %2, align 8
  %3 = load ptr, ptr %2, align 8
  %4 = getelementptr inbounds %"struct.std::_Vector_base", ptr %3, i32 0, i32 0
  call void @_ZNSt12_Vector_baseIfSaIfEE12_Vector_implC2Ev(ptr noundef nonnull align 8 dereferenceable(24) %4) #12
  ret void
}

; Function Attrs: mustprogress nounwind uwtable
define linkonce_odr void @_ZNSt6vectorIN5faiss24ClusteringIterationStatsESaIS1_EEC2Ev(ptr noundef nonnull align 8 dereferenceable(24) %0) unnamed_addr #1 comdat align 2 {
  %2 = alloca ptr, align 8
  store ptr %0, ptr %2, align 8
  %3 = load ptr, ptr %2, align 8
  call void @_ZNSt12_Vector_baseIN5faiss24ClusteringIterationStatsESaIS1_EEC2Ev(ptr noundef nonnull align 8 dereferenceable(24) %3) #12
  ret void
}

; Function Attrs: mustprogress nounwind uwtable
define linkonce_odr void @_ZNSt6vectorIfSaIfEEC2Ev(ptr noundef nonnull align 8 dereferenceable(24) %0) unnamed_addr #1 comdat align 2 {
  %2 = alloca ptr, align 8
  store ptr %0, ptr %2, align 8
  %3 = load ptr, ptr %2, align 8
  call void @_ZNSt12_Vector_baseIfSaIfEEC2Ev(ptr noundef nonnull align 8 dereferenceable(24) %3) #12
  ret void
}

; Function Attrs: mustprogress nounwind uwtable
define linkonce_odr void @_ZN5faiss20ClusteringParametersC2Ev(ptr noundef nonnull align 8 dereferenceable(40) %0) unnamed_addr #1 comdat align 2 {
  %2 = alloca ptr, align 8
  store ptr %0, ptr %2, align 8
  %3 = load ptr, ptr %2, align 8
  %4 = getelementptr inbounds %"struct.faiss::ClusteringParameters", ptr %3, i32 0, i32 0
  store i32 25, ptr %4, align 8
  %5 = getelementptr inbounds %"struct.faiss::ClusteringParameters", ptr %3, i32 0, i32 1
  store i32 1, ptr %5, align 4
  %6 = getelementptr inbounds %"struct.faiss::ClusteringParameters", ptr %3, i32 0, i32 2
  store i8 0, ptr %6, align 8
  %7 = getelementptr inbounds %"struct.faiss::ClusteringParameters", ptr %3, i32 0, i32 3
  store i8 0, ptr %7, align 1
  %8 = getelementptr inbounds %"struct.faiss::ClusteringParameters", ptr %3, i32 0, i32 4
  store i8 0, ptr %8, align 2
  %9 = getelementptr inbounds %"struct.faiss::ClusteringParameters", ptr %3, i32 0, i32 5
  store i8 0, ptr %9, align 1
  %10 = getelementptr inbounds %"struct.faiss::ClusteringParameters", ptr %3, i32 0, i32 6
  store i8 0, ptr %10, align 4
  %11 = getelementptr inbounds %"struct.faiss::ClusteringParameters", ptr %3, i32 0, i32 7
  store i32 39, ptr %11, align 8
  %12 = getelementptr inbounds %"struct.faiss::ClusteringParameters", ptr %3, i32 0, i32 8
  store i32 256, ptr %12, align 4
  %13 = getelementptr inbounds %"struct.faiss::ClusteringParameters", ptr %3, i32 0, i32 9
  store i32 1234, ptr %13, align 8
  %14 = getelementptr inbounds %"struct.faiss::ClusteringParameters", ptr %3, i32 0, i32 10
  store i64 32768, ptr %14, align 8
  ret void
}

; Function Attrs: mustprogress nounwind uwtable
define void @_ZN5faiss10ClusteringC2Eii(ptr noundef nonnull align 8 dereferenceable(112) %0, i32 noundef %1, i32 noundef %2) unnamed_addr #1 align 2 {
  %4 = alloca ptr, align 8
  %5 = alloca i32, align 4
  %6 = alloca i32, align 4
  store ptr %0, ptr %4, align 8
  store i32 %1, ptr %5, align 4
  store i32 %2, ptr %6, align 4
  %7 = load ptr, ptr %4, align 8
  %8 = getelementptr inbounds i8, ptr %7, i64 8
  call void @_ZN5faiss20ClusteringParametersC2Ev(ptr noundef nonnull align 8 dereferenceable(40) %8) #12
  store ptr getelementptr inbounds ({ [5 x ptr] }, ptr @_ZTVN5faiss10ClusteringE, i32 0, i32 0, i32 2), ptr %7, align 8
  %9 = getelementptr inbounds %"struct.faiss::Clustering", ptr %7, i32 0, i32 2
  %10 = load i32, ptr %5, align 4
  %11 = sext i32 %10 to i64
  store i64 %11, ptr %9, align 8
  %12 = getelementptr inbounds %"struct.faiss::Clustering", ptr %7, i32 0, i32 3
  %13 = load i32, ptr %6, align 4
  %14 = sext i32 %13 to i64
  store i64 %14, ptr %12, align 8
  %15 = getelementptr inbounds %"struct.faiss::Clustering", ptr %7, i32 0, i32 4
  call void @_ZNSt6vectorIfSaIfEEC2Ev(ptr noundef nonnull align 8 dereferenceable(24) %15) #12
  %16 = getelementptr inbounds %"struct.faiss::Clustering", ptr %7, i32 0, i32 5
  call void @_ZNSt6vectorIN5faiss24ClusteringIterationStatsESaIS1_EEC2Ev(ptr noundef nonnull align 8 dereferenceable(24) %16) #12
  ret void
}

; Function Attrs: mustprogress nounwind uwtable
define void @_ZN5faiss12Clustering1DC2Ei(ptr noundef nonnull align 8 dereferenceable(112) %0, i32 noundef %1) unnamed_addr #1 align 2 {
  %3 = alloca ptr, align 8
  %4 = alloca i32, align 4
  store ptr %0, ptr %3, align 8
  store i32 %1, ptr %4, align 4
  %5 = load ptr, ptr %3, align 8
  %6 = load i32, ptr %4, align 4
  call void @_ZN5faiss10ClusteringC2Eii(ptr noundef nonnull align 8 dereferenceable(112) %5, i32 noundef 1, i32 noundef %6)
  store ptr getelementptr inbounds ({ [5 x ptr] }, ptr @_ZTVN5faiss12Clustering1DE, i32 0, i32 0, i32 2), ptr %5, align 8
  ret void
}