; Function Attrs: mustprogress nofree norecurse nosync nounwind willreturn memory(argmem: write) uwtable
define void @_ZN5faiss12Clustering1DC2Ei(ptr nocapture noundef nonnull writeonly align 8 dereferenceable(112) %0, i32 noundef %1) unnamed_addr #2 align 2 {
  %3 = getelementptr inbounds i8, ptr %0, i64 8
  store i32 25, ptr %3, align 8
  %4 = getelementptr inbounds i8, ptr %0, i64 12
  store i32 1, ptr %4, align 4
  %5 = getelementptr inbounds i8, ptr %0, i64 16
  %6 = getelementptr inbounds i8, ptr %0, i64 24
  tail call void @llvm.memset.p0.i64(ptr noundef nonnull align 8 dereferenceable(5) %5, i8 0, i64 5, i1 false)
  store i32 39, ptr %6, align 8
  %7 = getelementptr inbounds i8, ptr %0, i64 28
  store i32 256, ptr %7, align 4
  %8 = getelementptr inbounds i8, ptr %0, i64 32
  store i32 1234, ptr %8, align 8
  %9 = getelementptr inbounds i8, ptr %0, i64 40
  store i64 32768, ptr %9, align 8
  %10 = getelementptr inbounds i8, ptr %0, i64 48
  store i64 1, ptr %10, align 8
  %11 = getelementptr inbounds i8, ptr %0, i64 56
  %12 = sext i32 %1 to i64
  store i64 %12, ptr %11, align 8
  %13 = getelementptr inbounds i8, ptr %0, i64 64
  tail call void @llvm.memset.p0.i64(ptr noundef nonnull align 8 dereferenceable(48) %13, i8 0, i64 48, i1 false)
  store ptr getelementptr inbounds ({ [5 x ptr] }, ptr @_ZTVN5faiss12Clustering1DE, i64 0, i32 0, i64 2), ptr %0, align 8
  ret void
}